; Function Attrs: nounwind sspstrong uwtable
define internal fastcc void @encode_year(i64 noundef %0, i32 noundef %1, double noundef %2, ptr noundef nonnull writeonly captures(none) initializes((0, 8)) %3) unnamed_addr #0 {
  %5 = icmp eq i64 %0, 0
  %6 = and i64 %0, 7
  %7 = icmp ne i64 %6, 0
  %8 = or i1 %5, %7
  br i1 %8, label %9, label %rb_type.exit.i

9:                                                ; preds = %4
  %10 = tail call i64 @llvm.fshl.i64(i64 %0, i64 %0, i64 62)
  switch i64 %10, label %11 [
    i64 0, label %f_zero_p.exit
    i64 1, label %f_zero_p.exit
    i64 5, label %f_zero_p.exit
    i64 9, label %f_zero_p.exit
  ]

11:                                               ; preds = %9
  %12 = and i64 %0, 1
  %.not.i.i = icmp eq i64 %12, 0
  br i1 %.not.i.i, label %f_zero_p.exit, label %rb_type.exit.thread8.i

rb_type.exit.i:                                   ; preds = %4
  %13 = inttoptr i64 %0 to ptr
  %14 = load i64, ptr %13, align 8, !tbaa !35
  %15 = trunc i64 %14 to i32
  %16 = and i32 %15, 31
  switch i32 %16, label %f_zero_p.exit [
    i32 21, label %rb_type.exit.thread8.i
    i32 10, label %f_zero_p.exit.thread
    i32 15, label %18
  ]

rb_type.exit.thread8.i:                           ; preds = %rb_type.exit.i, %11
  %17 = icmp ult i64 %0, 2
  br i1 %17, label %f_zero_p.exit.thread13, label %f_zero_p.exit.thread

18:                                               ; preds = %rb_type.exit.i
  %19 = tail call i64 @rb_rational_num(i64 noundef %0) #24
  %or.cond = icmp eq i64 %19, 1
  br i1 %or.cond, label %f_zero_p.exit.thread13, label %f_zero_p.exit.thread

f_zero_p.exit:                                    ; preds = %9, %9, %9, %9, %11, %rb_type.exit.i
  %20 = load i64, ptr @id_eqeq_p, align 8, !tbaa !6
  %21 = tail call i64 (i64, i64, i32, ...) @rb_funcall(i64 noundef %0, i64 noundef %20, i32 noundef 1, i64 noundef 1) #21
  %.not = icmp eq i64 %21, 0
  br i1 %.not, label %f_zero_p.exit.thread, label %f_zero_p.exit.thread13

f_zero_p.exit.thread13:                           ; preds = %18, %rb_type.exit.thread8.i, %f_zero_p.exit
  %22 = sext i32 %1 to i64
  %23 = shl nsw i64 %22, 1
  %24 = or disjoint i64 %23, 1
  br label %32

f_zero_p.exit.thread:                             ; preds = %18, %rb_type.exit.i, %rb_type.exit.thread8.i, %f_zero_p.exit
  %25 = fcmp olt double %2, 0.000000e+00
  %26 = select i1 %25, i64 1168801, i64 1168777
  %27 = tail call i64 (i64, i64, i32, ...) @rb_funcall(i64 noundef %26, i64 noundef 42, i32 noundef 1, i64 noundef %0) #21
  %28 = sext i32 %1 to i64
  %29 = shl nsw i64 %28, 1
  %30 = or disjoint i64 %29, 1
  %31 = tail call i64 (i64, i64, i32, ...) @rb_funcall(i64 noundef %27, i64 noundef 43, i32 noundef 1, i64 noundef %30) #21
  br label %32

32:                                               ; preds = %f_zero_p.exit.thread, %f_zero_p.exit.thread13
  %storemerge = phi i64 [ %31, %f_zero_p.exit.thread ], [ %24, %f_zero_p.exit.thread13 ]
  store i64 %storemerge, ptr %3, align 8, !tbaa !6
  ret void
}